(dp0
S'sim_hash'
p1
S"b\xdff\xa1\x166t\x05\xb6l\xe3\xb8\xd1\x7f\x98e\xe5\x94a\x83s\x97\xbfd:<s\x1e\x81\xfb\xf4\x03*q\r'\xe94N\xfd\x0f\x1c\xb7\x03`\xf1XEY!\xf1k\xbd\x96\xb6\x12\x80/*R\xd8Z\x99b"
p2
sS'agt_hash'
p3
S'\xfe\x1a\xc3\xfeM\xd4I\x8a\xbc\xa7/\x87\xcfj\x90\x85\x99\xc7+#~\xe2\xa1\xe0o|Bc\x88\xed\x8d\xe7\x18\x0b\x96g\x88J\xee\x0b} \x9d\xd4\xee\xb3\xf6C\x8f\xc5Ug\n\xfc\xba\xe4\xd4\x07\x85\x85d>\x81\x8e'
p4
sS'case_prefix'
p5
S'200a'
p6
sS'sim_cfg'
p7
S'/simulation_data/glooper/cfg/multibatch/new_cfg/post_thesis/many_agents/200a_5000_agt.sim.cfg.py'
p8
sS'fname_stem'
p9
S'5000_agt'
p10
sS'agt_cfg'
p11
S'/simulation_data/glooper/cfg/multibatch/new_cfg/post_thesis/many_agents/200a_5000_agt.sim.cfg.agent.lua'
p12
sS'bin_cfg'
p13
S'/simulation_data/glooper/cfg/multibatch/new_cfg/post_thesis/many_agents/200a_5000_agt.sim.cfg.bin'
p14
sS'sim_comment'
p15
S'Uniform with 5000 NA(Uniform)(1,0) agents '
p16
sS'outpath'
p17
S'/simulation_data/glooper/cfg/multibatch/new_cfg/post_thesis/many_agents'
p18
sS'agent_population'
p19
(dp20
S'single'
p21
(dp22
S'type'
p23
S'StandardComplexAgent'
p24
sS'attrs'
p25
(dp26
S'significance_threshold'
p27
(S'1'
p28
I0
tp29
sS'belief'
p30
(S'rng.UniformGenerator()'
p31
I1
tp32
sS'public_weight'
p33
(g28
I0
tp34
sS'mean_reversion'
p35
(S'0'
p36
I0
tp37
sS'max_memory'
p38
(g28
I0
tp39
sS'private_info_generator'
p40
(S'rng.UniformGenerator()'
p41
I0
tp42
sS'private_weight'
p43
(g36
I0
tp44
sS'spread_generator'
p45
(S'rng.UniformGenerator(0.001, 0.01)'
p46
I0
tp47
sS'wealth'
p48
(S'rng.ParetoGenerator(10000, 1.4)'
p49
I1
tp50
ssS'N'
p51
S'5000'
p52
sssS'N_batches'
p53
g28
sS'N_steps'
p54
S'1000'
p55
sS'info_generator'
p56
(dp57
g23
S'SimpleInfoGenerator'
p58
sg25
(dp59
S'value_generator'
p60
S'rng.UniformGenerator()'
p61
sssS'N_runs'
p62
S'100'
p63
sS'N_threads'
p64
S'4'
p65
s.