(dp0
S'sim_hash'
p1
S'a\x044\x88\x83n\xbd\x86\x01\xfaW!\xd1\xb6G:J\x91\xe1\r_\xfb\xc6\xcc#\x81O\x86\xeb"\xd0\x07\x91\xed?|\x13\xd1\x91\xaa(\x95\xefb\xd2\x8f:\x89"\r9\x10\xda\xc7\xcbi6r\x01\x87\xe9s\x11\x83'
p2
sS'agt_hash'
p3
S'\xc3\x98\xe6\x97\x9f\xd9\x89\xa6\xba\x8f\xef\x1f\xf2\x19\x83\xa1>\xdf\x9b\r\xee\x11\xb6o\xca\xe9\xd2R\xf0\x89\x0e\xba\x9e\x91UG(\x9c\xe4\xda\xb6eC\x86\xae\xb7:\x04{\x98\xf5o\x06)\xa2\x90\x17`\xf4\xbb>\xc1\xbe='
p4
sS'case_prefix'
p5
S'102c'
p6
sS'sim_cfg'
p7
S'/simulation_data/glooper/cfg/multibatch/new_cfg/run_num/102c_steps_1500.sim.cfg.py'
p8
sS'fname_stem'
p9
S'steps_1500'
p10
sS'agt_cfg'
p11
S'/simulation_data/glooper/cfg/multibatch/new_cfg/run_num/102c_steps_1500.sim.cfg.agent.lua'
p12
sS'bin_cfg'
p13
S'/simulation_data/glooper/cfg/multibatch/new_cfg/run_num/102c_steps_1500.sim.cfg.bin'
p14
sS'sim_comment'
p15
S'Uniform with 100 NA(Uniform)(1,0) agents - 1500 steps'
p16
sS'outpath'
p17
S'/simulation_data/glooper/cfg/multibatch/new_cfg/run_num'
p18
sS'agent_population'
p19
(dp20
S'single'
p21
(dp22
S'type'
p23
S'StandardComplexAgent'
p24
sS'attrs'
p25
(dp26
S'significance_threshold'
p27
(S'1'
p28
I0
tp29
sS'belief'
p30
(S'rng.UniformGenerator()'
p31
I1
tp32
sS'public_weight'
p33
(g28
I0
tp34
sS'wealth'
p35
(S'rng.ParetoGenerator(10000, 1.4)'
p36
I1
tp37
sS'mean_reversion'
p38
(S'0'
p39
I0
tp40
sS'max_memory'
p41
(g28
I0
tp42
sS'private_info_generator'
p43
(S'rng.UniformGenerator()'
p44
I0
tp45
sS'private_weight'
p46
(g39
I0
tp47
sS'spread_generator'
p48
(S'rng.UniformGenerator(0.001, 0.01)'
p49
I0
tp50
ssS'N'
p51
S'100'
p52
sssS'N_batches'
p53
S'1'
p54
sS'N_steps'
p55
S'1500'
p56
sS'info_generator'
p57
(dp58
S'type'
p59
S'SimpleInfoGenerator'
p60
sS'attrs'
p61
(dp62
S'value_generator'
p63
S'rng.UniformGenerator()'
p64
sssS'N_runs'
p65
S'100'
p66
sS'N_threads'
p67
S'4'
p68
s.