(dp0
S'sim_hash'
p1
S'\xceG\xa2\xcf\x13+\xfb\xb4;:\xed#\x85\xdb\xc86\xac\x84\x18\x05\xeed\xfdf\xef4\x92\xea\xads\x970\xbe_K\xc4\x04\x0c\x97]-\x91U>\xca\x97%_\xacT\xf9\x02\x9bhJ\x8f\xfd\x89:\xa9\x01t\x93o'
p2
sS'agt_hash'
p3
S"\xdfrZ\x1a\xbf\\5:\x1e\xa20\xc4d\xbd]\xf4\xc5)\x8c\x13?\x9aA\x16!\xc6\x12\x0bp\xf2La\x99\x9b(\x8f.\xb6\xefh\x14h'\xe7D\\\xb0\xf3\xac\xf7\x97\xf1drS\xf2/\xaa\x9d\x93\xee-\xae*"
p4
sS'case_prefix'
p5
S'002c'
p6
sS'sim_cfg'
p7
S'/simulation_data/glooper/cfg/multibatch/new_cfg/info/002c_mixed_pp.sim.cfg.py'
p8
sS'fname_stem'
p9
S'mixed_pp'
p10
sS'agt_cfg'
p11
S'/simulation_data/glooper/cfg/multibatch/new_cfg/info/002c_mixed_pp.sim.cfg.agent.lua'
p12
sS'bin_cfg'
p13
S'/simulation_data/glooper/cfg/multibatch/new_cfg/info/002c_mixed_pp.sim.cfg.bin'
p14
sS'sim_comment'
p15
S'Uniform with 100 NA(Uniform)(1,1) agents '
p16
sS'outpath'
p17
S'/simulation_data/glooper/cfg/multibatch/new_cfg/info'
p18
sS'agent_population'
p19
(dp20
S'single'
p21
(dp22
S'type'
p23
S'StandardComplexAgent'
p24
sS'attrs'
p25
(dp26
S'significance_threshold'
p27
(S'1'
p28
I0
tp29
sS'belief'
p30
(S'rng.UniformGenerator()'
p31
I1
tp32
sS'public_weight'
p33
(g28
I0
tp34
sS'mean_reversion'
p35
(S'0'
p36
I0
tp37
sS'max_memory'
p38
(g28
I0
tp39
sS'private_info_generator'
p40
(S'rng.UniformGenerator()'
p41
I0
tp42
sS'private_weight'
p43
(g28
I0
tp44
sS'spread_generator'
p45
(S'rng.UniformGenerator(0.001, 0.01)'
p46
I0
tp47
sS'wealth'
p48
(S'rng.ParetoGenerator(10000, 1.4)'
p49
I1
tp50
ssS'N'
p51
S'100'
p52
sssS'N_batches'
p53
g28
sS'N_steps'
p54
S'1000'
p55
sS'info_generator'
p56
(dp57
g23
S'SimpleInfoGenerator'
p58
sg25
(dp59
S'value_generator'
p60
S'rng.UniformGenerator()'
p61
sssS'N_runs'
p62
S'100'
p63
sS'N_threads'
p64
S'4'
p65
s.