(dp0
S'sim_hash'
p1
S'^\xa6\xd6?5\x89\x0f\xda\x93\xeao\x80x\x96\xf4\x1c\xdd\x89\xde\xc5\x1c\xa5\x88\x97\xf8\x14l\xd2\xcaJ\x18\xde\x81v\xad\x84\xcc,\xca\x19\xe5z\nGg\xca\xfdS\x9b<N&\x08\x03\xc1t\xaa\x04\xd4\xf6\x85A\x8d\t'
p2
sS'agt_hash'
p3
S"\xdfrZ\x1a\xbf\\5:\x1e\xa20\xc4d\xbd]\xf4\xc5)\x8c\x13?\x9aA\x16!\xc6\x12\x0bp\xf2La\x99\x9b(\x8f.\xb6\xefh\x14h'\xe7D\\\xb0\xf3\xac\xf7\x97\xf1drS\xf2/\xaa\x9d\x93\xee-\xae*"
p4
sS'case_prefix'
p5
S'002d'
p6
sS'sim_cfg'
p7
S'/simulation_data/glooper/cfg/multibatch/new_cfg/info/002d_mixed_intermit_010.sim.cfg.py'
p8
sS'fname_stem'
p9
S'mixed_intermit_010'
p10
sS'agt_cfg'
p11
S'/simulation_data/glooper/cfg/multibatch/new_cfg/info/002d_mixed_intermit_010.sim.cfg.agent.lua'
p12
sS'bin_cfg'
p13
S'/simulation_data/glooper/cfg/multibatch/new_cfg/info/002d_mixed_intermit_010.sim.cfg.bin'
p14
sS'sim_comment'
p15
S'Intermittent(0.1) Uniform with 100 NA(Uniform)(1,1) agents '
p16
sS'outpath'
p17
S'/simulation_data/glooper/cfg/multibatch/new_cfg/info'
p18
sS'agent_population'
p19
(dp20
S'single'
p21
(dp22
S'type'
p23
S'StandardComplexAgent'
p24
sS'attrs'
p25
(dp26
S'significance_threshold'
p27
(S'1'
p28
I0
tp29
sS'belief'
p30
(S'rng.UniformGenerator()'
p31
I1
tp32
sS'public_weight'
p33
(g28
I0
tp34
sS'wealth'
p35
(S'rng.ParetoGenerator(10000, 1.4)'
p36
I1
tp37
sS'mean_reversion'
p38
(S'0'
p39
I0
tp40
sS'max_memory'
p41
(g28
I0
tp42
sS'private_info_generator'
p43
(S'rng.UniformGenerator()'
p44
I0
tp45
sS'private_weight'
p46
(g28
I0
tp47
sS'spread_generator'
p48
(S'rng.UniformGenerator(0.001, 0.01)'
p49
I0
tp50
ssS'N'
p51
S'100'
p52
sssS'N_batches'
p53
S'1'
p54
sS'N_steps'
p55
S'1000'
p56
sS'info_generator'
p57
(dp58
S'type'
p59
S'SimpleIntermittentInfoGenerator'
p60
sS'attrs'
p61
(dp62
S'value_generator'
p63
S'rng.UniformGenerator()'
p64
sS'generation_prob'
p65
S'0.1'
p66
sssS'N_runs'
p67
S'100'
p68
sS'N_threads'
p69
S'4'
p70
s.