(dp0
S'sim_hash'
p1
S'cHh(\x91\xd7\x03w?\xd4\xe2=\xfa\xb5|s\x97I\xb7m\xcf}g\xeaG\x88kt\x1c\xbc\x96\x81\x7foT\x8b\x04\x18#Q#V.\xd5\xfel\xba"\x84\xa3L\xa3\xd4\x06\xedX\x13\x97Oob\xd2\xb5\xff'
p2
sS'agt_hash'
p3
S'\xc3\x98\xe6\x97\x9f\xd9\x89\xa6\xba\x8f\xef\x1f\xf2\x19\x83\xa1>\xdf\x9b\r\xee\x11\xb6o\xca\xe9\xd2R\xf0\x89\x0e\xba\x9e\x91UG(\x9c\xe4\xda\xb6eC\x86\xae\xb7:\x04{\x98\xf5o\x06)\xa2\x90\x17`\xf4\xbb>\xc1\xbe='
p4
sS'case_prefix'
p5
S'001a'
p6
sS'sim_cfg'
p7
S'/simulation_data/glooper/cfg/multibatch/001a_uniform_base.sim.cfg.py'
p8
sS'fname_stem'
p9
S'uniform_base'
p10
sS'agt_cfg'
p11
S'/simulation_data/glooper/cfg/multibatch/001a_uniform_base.sim.cfg.agent.lua'
p12
sS'bin_cfg'
p13
S'/simulation_data/glooper/cfg/multibatch/001a_uniform_base.sim.cfg.bin'
p14
sS'sim_comment'
p15
S'Uniform with 100 NA(Uniform)(1,0) agents '
p16
sS'outpath'
p17
S'/simulation_data/glooper/cfg/multibatch'
p18
sS'agent_population'
p19
(dp20
S'single'
p21
(dp22
S'type'
p23
S'StandardComplexAgent'
p24
sS'attrs'
p25
(dp26
S'significance_threshold'
p27
(S'1'
p28
I0
tp29
sS'belief'
p30
(S'rng.UniformGenerator()'
p31
I1
tp32
sS'public_weight'
p33
(g28
I0
tp34
sS'mean_reversion'
p35
(S'0'
p36
I0
tp37
sS'max_memory'
p38
(g28
I0
tp39
sS'private_info_generator'
p40
(S'rng.UniformGenerator()'
p41
I0
tp42
sS'private_weight'
p43
(g36
I0
tp44
sS'spread_generator'
p45
(S'rng.UniformGenerator(0.001, 0.01)'
p46
I0
tp47
sS'wealth'
p48
(S'rng.ParetoGenerator(10000, 1.4)'
p49
I1
tp50
ssS'N'
p51
S'100'
p52
sssS'N_batches'
p53
g28
sS'N_steps'
p54
S'1000'
p55
sS'info_generator'
p56
(dp57
g23
S'SimpleInfoGenerator'
p58
sg25
(dp59
S'value_generator'
p60
S'rng.UniformGenerator()'
p61
sssS'N_runs'
p62
S'100'
p63
sS'N_threads'
p64
S'4'
p65
s.