(dp0
S'sim_hash'
p1
S'\x03\xdaM\x08\x92>\xaa\xee\x9aC\xfahz\xd1\xb0\xe0YE}\x97(\xdas\x06\x1cf`\x00x\xfc\xb6\xb5\xfc\xa7\xa8\xb1\xafP7\xb7\xe8=\xcd\xc0\xc2}z)\x17\xe7E\xf3\x7f`\x00\x82m\xed\xd6\x8c\xb3\x05\xbf\x9e'
p2
sS'agt_hash'
p3
S'V\x828\xf9\xa4\xd1n\xd8\xa0\x02+\xfc\xc6\xf3\xb8~\xefv\x9biB\x03\x89\xf3\x91O\x1f\xce\x9a\xb4\x1eI\x06\x84E\xe7\xcf\xac\xc3D]\x1c\xf4\xa4\x95m\xf9?\x1f\xc5MqvO\xd7z\xcdib@\x06y_\xc8'
p4
sS'case_prefix'
p5
S'050b'
p6
sS'sim_cfg'
p7
S'/simulation_data/glooper/cfg/multibatch/new_cfg/spread/050b_spread_uni05.sim.cfg.py'
p8
sS'fname_stem'
p9
S'spread_uni05'
p10
sS'agt_cfg'
p11
S'/simulation_data/glooper/cfg/multibatch/new_cfg/spread/050b_spread_uni05.sim.cfg.agent.lua'
p12
sS'bin_cfg'
p13
S'/simulation_data/glooper/cfg/multibatch/new_cfg/spread/050b_spread_uni05.sim.cfg.bin'
p14
sS'sim_comment'
p15
S'Uniform with 100 NA(Uniform)(1,0) agents; Uniform(0.001, 0.05) spread'
p16
sS'outpath'
p17
S'/simulation_data/glooper/cfg/multibatch/new_cfg/spread'
p18
sS'agent_population'
p19
(dp20
S'single'
p21
(dp22
S'type'
p23
S'StandardComplexAgent'
p24
sS'attrs'
p25
(dp26
S'significance_threshold'
p27
(S'1'
p28
I0
tp29
sS'belief'
p30
(S'rng.UniformGenerator()'
p31
I1
tp32
sS'public_weight'
p33
(g28
I0
tp34
sS'mean_reversion'
p35
(S'0'
p36
I0
tp37
sS'max_memory'
p38
(g28
I0
tp39
sS'private_info_generator'
p40
(S'rng.UniformGenerator()'
p41
I0
tp42
sS'private_weight'
p43
(g36
I0
tp44
sS'spread_generator'
p45
(S'rng.UniformGenerator(0.001, 0.05)'
p46
I0
tp47
sS'wealth'
p48
(S'rng.ParetoGenerator(10000, 1.4)'
p49
I1
tp50
ssS'N'
p51
S'100'
p52
sssS'N_batches'
p53
g28
sS'N_steps'
p54
S'1000'
p55
sS'info_generator'
p56
(dp57
g23
S'SimpleInfoGenerator'
p58
sg25
(dp59
S'value_generator'
p60
S'rng.UniformGenerator()'
p61
sssS'N_runs'
p62
S'100'
p63
sS'N_threads'
p64
S'4'
p65
s.