(dp0
S'sim_hash'
p1
S'\x0fi\xf3\xd5\xd9\x0ebW\x11\xc5\xa0J<\xce\x03{\xbd"\xe7\xe6\xa4?\xe4\x9d\xb7F\xcd\x9d\x8ey\xc2\xd4\x9d\xd4A\x8fZ\x8e\xb8\x1b\x97O\x9a\xa7\x99\xe0\xce8\xe8\xb6\xfc2\xd9\xc7\x0c"1\xd8H\x0f\xadX\xb2T'
p2
sS'agt_hash'
p3
S'\xab\x13\xd2\xf1r\x1d]l\x8dJ\xb5\x05\xe5)\xda\xf0\xa2~z\xac;\xff\x1f\x05\x1eB/<\xeb\xfd\xde/\x00\x87\xc2\xd16\x1a\x13\xef"\x94\x81\xd6\x19&\xad\x9bu\xb9E\xf3Eo\xe2\xc7<\xf24M\x98P\x8d\xfa'
p4
sS'case_prefix'
p5
S'050c'
p6
sS'sim_cfg'
p7
S'/simulation_data/glooper/cfg/multibatch/new_cfg/spread/050c_spread_uni10.sim.cfg.py'
p8
sS'fname_stem'
p9
S'spread_uni10'
p10
sS'agt_cfg'
p11
S'/simulation_data/glooper/cfg/multibatch/new_cfg/spread/050c_spread_uni10.sim.cfg.agent.lua'
p12
sS'bin_cfg'
p13
S'/simulation_data/glooper/cfg/multibatch/new_cfg/spread/050c_spread_uni10.sim.cfg.bin'
p14
sS'sim_comment'
p15
S'Uniform with 100 NA(Uniform)(1,0) agents; Uniform(0.001, 0.1) '
p16
sS'outpath'
p17
S'/simulation_data/glooper/cfg/multibatch/new_cfg/spread'
p18
sS'agent_population'
p19
(dp20
S'single'
p21
(dp22
S'type'
p23
S'StandardComplexAgent'
p24
sS'attrs'
p25
(dp26
S'significance_threshold'
p27
(S'1'
p28
I0
tp29
sS'belief'
p30
(S'rng.UniformGenerator()'
p31
I1
tp32
sS'public_weight'
p33
(g28
I0
tp34
sS'mean_reversion'
p35
(S'0'
p36
I0
tp37
sS'max_memory'
p38
(g28
I0
tp39
sS'private_info_generator'
p40
(S'rng.UniformGenerator()'
p41
I0
tp42
sS'private_weight'
p43
(g36
I0
tp44
sS'spread_generator'
p45
(S'rng.UniformGenerator(0.001, 0.1)'
p46
I0
tp47
sS'wealth'
p48
(S'rng.ParetoGenerator(10000, 1.4)'
p49
I1
tp50
ssS'N'
p51
S'100'
p52
sssS'N_batches'
p53
g28
sS'N_steps'
p54
S'1000'
p55
sS'info_generator'
p56
(dp57
g23
S'SimpleInfoGenerator'
p58
sg25
(dp59
S'value_generator'
p60
S'rng.UniformGenerator()'
p61
sssS'N_runs'
p62
S'100'
p63
sS'N_threads'
p64
S'4'
p65
s.