(dp0
S'sim_hash'
p1
S'\xb8\xd1)\xf7\xbb|J9\xb9\xe4\x90<\xa5H\xed\xd7.1,`\x12\xc3\xb0$\x9au\x89\x912n\x04\xf7b\xc4\x8e\x0f\x95\tPh\x9f\xa48\x86d\n!I<\x91E\xa7%\xa6\xbd\xda2w\x17\xb4\x89\x0ca\xab'
p2
sS'agt_hash'
p3
S'5\xfd\xcc\xb0\xea#NS2\x9f\x0f\x18\xb4\xa2\xa8\xe5\x07\xb7w\x81\x97\xdc\xa4\x1d\x13\xd8J7R\xa0"\x08XY\xbc\x9d\x8d\x15\x90\xbd\xe9\xb0\xc0)=\xe2\x1e\xf2\x8c\xa7\x05\xdb\xd7,d\xa7\x1b\xf4\xe3:\xac!t\x04'
p4
sS'case_prefix'
p5
S'050d'
p6
sS'sim_cfg'
p7
S'/simulation_data/glooper/cfg/multibatch/new_cfg/spread/050d_spread_exp01.sim.cfg.py'
p8
sS'fname_stem'
p9
S'spread_exp01'
p10
sS'agt_cfg'
p11
S'/simulation_data/glooper/cfg/multibatch/new_cfg/spread/050d_spread_exp01.sim.cfg.agent.lua'
p12
sS'bin_cfg'
p13
S'/simulation_data/glooper/cfg/multibatch/new_cfg/spread/050d_spread_exp01.sim.cfg.bin'
p14
sS'sim_comment'
p15
S'Uniform with 100 NA(Uniform)(1,0) agents; Exp(1/0.0055)'
p16
sS'outpath'
p17
S'/simulation_data/glooper/cfg/multibatch/new_cfg/spread'
p18
sS'agent_population'
p19
(dp20
S'single'
p21
(dp22
S'type'
p23
S'StandardComplexAgent'
p24
sS'attrs'
p25
(dp26
S'significance_threshold'
p27
(S'1'
p28
I0
tp29
sS'belief'
p30
(S'rng.UniformGenerator()'
p31
I1
tp32
sS'public_weight'
p33
(g28
I0
tp34
sS'mean_reversion'
p35
(S'0'
p36
I0
tp37
sS'max_memory'
p38
(g28
I0
tp39
sS'private_info_generator'
p40
(S'rng.UniformGenerator()'
p41
I0
tp42
sS'private_weight'
p43
(g36
I0
tp44
sS'spread_generator'
p45
(S'rng.ExponentialGenerator(1./0.0055)'
p46
I0
tp47
sS'wealth'
p48
(S'rng.ParetoGenerator(10000, 1.4)'
p49
I1
tp50
ssS'N'
p51
S'100'
p52
sssS'N_batches'
p53
g28
sS'N_steps'
p54
S'1000'
p55
sS'info_generator'
p56
(dp57
g23
S'SimpleInfoGenerator'
p58
sg25
(dp59
S'value_generator'
p60
S'rng.UniformGenerator()'
p61
sssS'N_runs'
p62
S'100'
p63
sS'N_threads'
p64
S'4'
p65
s.