(dp0
S'sim_hash'
p1
S'\x895\x8f\x1f\xfe\x90\x97\x0c\xa5\x8d3\xd2\x9dZ*\x13\xce\xeb\x98\x15\xcf{^\xe5C}U\xc7\x81\xb6\xd4\x9bs\x18%#\x10RfA\xba\xa3Q\xb3[\x14q\x03\x8d\xc2\xf50\xb6|\xd8:L\xfc$\x10\xd3$\xde#'
p2
sS'agt_hash'
p3
S"9\x1d\x99'A\xfc\xf6\xe5\xeb\xb1\xad\xc9h\xd0+s\xb9\xc0[\x10\xa0\xa3S)\x8dJ\x99\xe5\xa5\x9d\x1eXl\x101\x18Y\xa7$\xa4p\x95\xa1q\x8f\x98~\xae\xde`*\xf9>\xdc\x9a\x18\xb9\x9dkB\xef\x16\xb5I"
p4
sS'case_prefix'
p5
S'050e'
p6
sS'sim_cfg'
p7
S'/simulation_data/glooper/cfg/multibatch/new_cfg/spread/050e_spread_exp05.sim.cfg.py'
p8
sS'fname_stem'
p9
S'spread_exp05'
p10
sS'agt_cfg'
p11
S'/simulation_data/glooper/cfg/multibatch/new_cfg/spread/050e_spread_exp05.sim.cfg.agent.lua'
p12
sS'bin_cfg'
p13
S'/simulation_data/glooper/cfg/multibatch/new_cfg/spread/050e_spread_exp05.sim.cfg.bin'
p14
sS'sim_comment'
p15
S'Uniform with 100 NA(Uniform)(1,0) agents; Exp(1/0.0255)'
p16
sS'outpath'
p17
S'/simulation_data/glooper/cfg/multibatch/new_cfg/spread'
p18
sS'agent_population'
p19
(dp20
S'single'
p21
(dp22
S'type'
p23
S'StandardComplexAgent'
p24
sS'attrs'
p25
(dp26
S'significance_threshold'
p27
(S'1'
p28
I0
tp29
sS'belief'
p30
(S'rng.UniformGenerator()'
p31
I1
tp32
sS'public_weight'
p33
(g28
I0
tp34
sS'mean_reversion'
p35
(S'0'
p36
I0
tp37
sS'max_memory'
p38
(g28
I0
tp39
sS'private_info_generator'
p40
(S'rng.UniformGenerator()'
p41
I0
tp42
sS'private_weight'
p43
(g36
I0
tp44
sS'spread_generator'
p45
(S'rng.ExponentialGenerator(1./0.0255)'
p46
I0
tp47
sS'wealth'
p48
(S'rng.ParetoGenerator(10000, 1.4)'
p49
I1
tp50
ssS'N'
p51
S'100'
p52
sssS'N_batches'
p53
g28
sS'N_steps'
p54
S'1000'
p55
sS'info_generator'
p56
(dp57
g23
S'SimpleInfoGenerator'
p58
sg25
(dp59
S'value_generator'
p60
S'rng.UniformGenerator()'
p61
sssS'N_runs'
p62
S'100'
p63
sS'N_threads'
p64
S'4'
p65
s.