(dp0
S'sim_hash'
p1
S'\xf3l\x84\xc1\xd4-7;&\xa3(\x1cl!o\x85\x00\x83*\xad\xbb\xd8\xaf\xaf\x15\xe9\x16\xbc\x96\xc5\x05L\xf6\xd5-tg\xbb\xa7+\x1fD>\x83\x8b\xd0\x93~e\xf6\xb8\x17\xe92\xd6\x13\x97?0\x06\x97\xa1\xee\x98'
p2
sS'agt_hash'
p3
S'\xbah\x81\xb3\xfb\xf5\xecT\xe3\xcdZ\xadv&A\x87EU6\xab\x89\xf8\x13\xc2\x81\xe2n\x83\xf0\xab\x89(\xab\xee\xa4\xbd\xfeY/5\xdbuy\x89\xd2\xbd\xe4\xcfQ\xd7\xcf\xea\x9d\xf5\x9cj\xf9\xe5\xe82\x07\xa9\xc3%'
p4
sS'case_prefix'
p5
S'050f'
p6
sS'sim_cfg'
p7
S'/simulation_data/glooper/cfg/multibatch/new_cfg/spread/050f_spread_exp10.sim.cfg.py'
p8
sS'fname_stem'
p9
S'spread_exp10'
p10
sS'agt_cfg'
p11
S'/simulation_data/glooper/cfg/multibatch/new_cfg/spread/050f_spread_exp10.sim.cfg.agent.lua'
p12
sS'bin_cfg'
p13
S'/simulation_data/glooper/cfg/multibatch/new_cfg/spread/050f_spread_exp10.sim.cfg.bin'
p14
sS'sim_comment'
p15
S'Uniform with 100 NA(Uniform)(1,0) agents; Exp(1/0.0505)'
p16
sS'outpath'
p17
S'/simulation_data/glooper/cfg/multibatch/new_cfg/spread'
p18
sS'agent_population'
p19
(dp20
S'single'
p21
(dp22
S'type'
p23
S'StandardComplexAgent'
p24
sS'attrs'
p25
(dp26
S'significance_threshold'
p27
(S'1'
p28
I0
tp29
sS'belief'
p30
(S'rng.UniformGenerator()'
p31
I1
tp32
sS'public_weight'
p33
(g28
I0
tp34
sS'mean_reversion'
p35
(S'0'
p36
I0
tp37
sS'max_memory'
p38
(g28
I0
tp39
sS'private_info_generator'
p40
(S'rng.UniformGenerator()'
p41
I0
tp42
sS'private_weight'
p43
(g36
I0
tp44
sS'spread_generator'
p45
(S'rng.ExponentialGenerator(1./0.0505)'
p46
I0
tp47
sS'wealth'
p48
(S'rng.ParetoGenerator(10000, 1.4)'
p49
I1
tp50
ssS'N'
p51
S'100'
p52
sssS'N_batches'
p53
g28
sS'N_steps'
p54
S'1000'
p55
sS'info_generator'
p56
(dp57
g23
S'SimpleInfoGenerator'
p58
sg25
(dp59
S'value_generator'
p60
S'rng.UniformGenerator()'
p61
sssS'N_runs'
p62
S'100'
p63
sS'N_threads'
p64
S'4'
p65
s.