(dp0
S'sim_hash'
p1
S'p\x13\xd2\xa6\x8eA\x0cmy\xee\xcd\x9b\xcd\xdb\x01\xf6\x87i\xa5BX\xd1\xe8\x18\x976\x88!\x8d\xe1\xc1\x8c\xa9,\xb6\xc0l\xad\x97v\x17\xe7\x87\x94(\xb3L\xa8\xca\xc4\xeb6\xc0/\x8e\x16\xf7\xd8\xddm\xdf\xc6\xa4\x8f'
p2
sS'agt_hash'
p3
S'\x02\xd4\xddIP\xdc\x1e\x02\x1e\xdb%\xc7\x84\xbd]\x82 \xa9b\xea\xe4s\x1c\x05\xaaa\x03\x06r\xfd\xf7\xfd\x1baWs\xfa)\xe3\xa5\xd1;\x13LY]\xbc\xd1D\x8d\xf5kG\x0b\xf3z\x18\xaa\xa7\x0f\xacm\xb0\x9e'
p4
sS'case_prefix'
p5
S'040a'
p6
sS'sim_cfg'
p7
S'/simulation_data/glooper/cfg/multibatch/new_cfg/wealth/040a_pareto_10.sim.cfg.py'
p8
sS'fname_stem'
p9
S'pareto_10'
p10
sS'agt_cfg'
p11
S'/simulation_data/glooper/cfg/multibatch/new_cfg/wealth/040a_pareto_10.sim.cfg.agent.lua'
p12
sS'bin_cfg'
p13
S'/simulation_data/glooper/cfg/multibatch/new_cfg/wealth/040a_pareto_10.sim.cfg.bin'
p14
sS'sim_comment'
p15
S'Uniform with 100 NA(Uniform)(1,0) agents; Pareto(1.0) wealth'
p16
sS'outpath'
p17
S'/simulation_data/glooper/cfg/multibatch/new_cfg/wealth'
p18
sS'agent_population'
p19
(dp20
S'single'
p21
(dp22
S'type'
p23
S'StandardComplexAgent'
p24
sS'attrs'
p25
(dp26
S'significance_threshold'
p27
(S'1'
p28
I0
tp29
sS'belief'
p30
(S'rng.UniformGenerator()'
p31
I1
tp32
sS'public_weight'
p33
(g28
I0
tp34
sS'mean_reversion'
p35
(S'0'
p36
I0
tp37
sS'max_memory'
p38
(g28
I0
tp39
sS'private_info_generator'
p40
(S'rng.UniformGenerator()'
p41
I0
tp42
sS'private_weight'
p43
(g36
I0
tp44
sS'spread_generator'
p45
(S'rng.UniformGenerator(0.001, 0.01)'
p46
I0
tp47
sS'wealth'
p48
(S'rng.ParetoGenerator(10000, 1.0)'
p49
I1
tp50
ssS'N'
p51
S'100'
p52
sssS'N_batches'
p53
g28
sS'N_steps'
p54
S'1000'
p55
sS'info_generator'
p56
(dp57
g23
S'SimpleInfoGenerator'
p58
sg25
(dp59
S'value_generator'
p60
S'rng.UniformGenerator()'
p61
sssS'N_runs'
p62
S'100'
p63
sS'N_threads'
p64
S'4'
p65
s.