(dp0
S'sim_hash'
p1
S'\t\x9b\x11\xb1_UF\x18\xcf\xec\xea\xb5c\x1c\x80\xe3\xf9T\xa7\xe6\xbb\xcc\xfd\xdb\xccTh\x1c+\x84N\xb6\x95V\x1c\x03q\x1b\x1e\x9f\xcb\x9dz0^V\xb5\xa0\xd5\xa5\xfb:?l\xbb\xbc`,\xe5z!\x83 \x04'
p2
sS'agt_hash'
p3
S'@1&\xa0-Zp\xa9p\xe9\x87\x11\x95{\xb3>oX"X\xa1^"\xba\xe9 d\xf1\xb52\xd7b\xa2\xc4\xfd\xe9\xb3a\xd29s\xbd\xf1\x92\x04m\xa9o?\xf3V\xe4c~\t\xcb\x0e\xbd\xea\xf6\xe7\xb7\xbar'
p4
sS'case_prefix'
p5
S'040c'
p6
sS'sim_cfg'
p7
S'/simulation_data/glooper/cfg/multibatch/new_cfg/wealth/040c_pareto_20.sim.cfg.py'
p8
sS'fname_stem'
p9
S'pareto_20'
p10
sS'agt_cfg'
p11
S'/simulation_data/glooper/cfg/multibatch/new_cfg/wealth/040c_pareto_20.sim.cfg.agent.lua'
p12
sS'bin_cfg'
p13
S'/simulation_data/glooper/cfg/multibatch/new_cfg/wealth/040c_pareto_20.sim.cfg.bin'
p14
sS'sim_comment'
p15
S'Uniform with 100 NA(Uniform)(1,0) agents; Pareto(2.0) wealth'
p16
sS'outpath'
p17
S'/simulation_data/glooper/cfg/multibatch/new_cfg/wealth'
p18
sS'agent_population'
p19
(dp20
S'single'
p21
(dp22
S'type'
p23
S'StandardComplexAgent'
p24
sS'attrs'
p25
(dp26
S'significance_threshold'
p27
(S'1'
p28
I0
tp29
sS'belief'
p30
(S'rng.UniformGenerator()'
p31
I1
tp32
sS'public_weight'
p33
(g28
I0
tp34
sS'mean_reversion'
p35
(S'0'
p36
I0
tp37
sS'max_memory'
p38
(g28
I0
tp39
sS'private_info_generator'
p40
(S'rng.UniformGenerator()'
p41
I0
tp42
sS'private_weight'
p43
(g36
I0
tp44
sS'spread_generator'
p45
(S'rng.UniformGenerator(0.001, 0.01)'
p46
I0
tp47
sS'wealth'
p48
(S'rng.ParetoGenerator(10000, 2.0)'
p49
I1
tp50
ssS'N'
p51
S'100'
p52
sssS'N_batches'
p53
g28
sS'N_steps'
p54
S'1000'
p55
sS'info_generator'
p56
(dp57
g23
S'SimpleInfoGenerator'
p58
sg25
(dp59
S'value_generator'
p60
S'rng.UniformGenerator()'
p61
sssS'N_runs'
p62
S'100'
p63
sS'N_threads'
p64
S'4'
p65
s.