(dp0
S'sim_hash'
p1
S"\xa4K\xb8\x01\xbe@\xe0Z.\x149\t\x87\xc8\x81o\x91\x8b\x97h\x04\xfdk\xf2\x80\xe0\xd2\xd7#[\xbb\x0b\xc0\x88\xb5H\xe2c\xdbp1\xa6'\xfc\xfd(\xd8\t\xbd\xf6\x04\x9f\x9a\xdaDA{\x05\xec|`\x03\xc3\xd8"
p2
sS'agt_hash'
p3
S"\xb0+\x94q\xc4'V\xa1V@\xdd5X\x1cO\x97\xd3P\x02\x14m\x8f\xca\xb5X\x8a\x99\xf1\x95\x95\x00\xc4\x85i*|p\x8a\xed\x8b\x93\xcbRs2\x8f\x0b\x9e\xf8U\x00\x91\xd5\xb4\x8cj\xb0\x8b5E\x00rK\x0e"
p4
sS'case_prefix'
p5
S'040d'
p6
sS'sim_cfg'
p7
S'/simulation_data/glooper/cfg/multibatch/new_cfg/wealth/040d_uni_10_60.sim.cfg.py'
p8
sS'fname_stem'
p9
S'uni_10_60'
p10
sS'agt_cfg'
p11
S'/simulation_data/glooper/cfg/multibatch/new_cfg/wealth/040d_uni_10_60.sim.cfg.agent.lua'
p12
sS'bin_cfg'
p13
S'/simulation_data/glooper/cfg/multibatch/new_cfg/wealth/040d_uni_10_60.sim.cfg.bin'
p14
sS'sim_comment'
p15
S'Uniform with 100 NA(Uniform)(1,0) agents; Uniform(10k,60k) wealth'
p16
sS'outpath'
p17
S'/simulation_data/glooper/cfg/multibatch/new_cfg/wealth'
p18
sS'agent_population'
p19
(dp20
S'single'
p21
(dp22
S'type'
p23
S'StandardComplexAgent'
p24
sS'attrs'
p25
(dp26
S'significance_threshold'
p27
(S'1'
p28
I0
tp29
sS'belief'
p30
(S'rng.UniformGenerator()'
p31
I1
tp32
sS'public_weight'
p33
(g28
I0
tp34
sS'mean_reversion'
p35
(S'0'
p36
I0
tp37
sS'max_memory'
p38
(g28
I0
tp39
sS'private_info_generator'
p40
(S'rng.UniformGenerator()'
p41
I0
tp42
sS'private_weight'
p43
(g36
I0
tp44
sS'spread_generator'
p45
(S'rng.UniformGenerator(0.001, 0.01)'
p46
I0
tp47
sS'wealth'
p48
(S'rng.UniformGenerator(10000, 60000)'
p49
I1
tp50
ssS'N'
p51
S'100'
p52
sssS'N_batches'
p53
g28
sS'N_steps'
p54
S'1000'
p55
sS'info_generator'
p56
(dp57
g23
S'SimpleInfoGenerator'
p58
sg25
(dp59
S'value_generator'
p60
S'rng.UniformGenerator()'
p61
sssS'N_runs'
p62
S'100'
p63
sS'N_threads'
p64
S'4'
p65
s.