(dp0
S'sim_hash'
p1
S'[|O\x94\x08w\xcco\xe5FQ\x05G7`\x9a\xd3LO\x82`D\x9e\x80cl\xdf#\xf0\x82\xb0\xa5\xb4\xe7Q]\xdb\x17\xd8>\xa3_\xfa\x0b\xf2\xb0\xea\xd8\xcc\xca\x96\xa9&\xc8\x91\xec\x9eT\x95\xab\xdf\xb2]\x86'
p2
sS'agt_hash'
p3
S'f\x9d3\xa6(\x8a\x01s4\xf9\xd3q\xe6~\x9f6\x9f#F\x89\x8e\x9c\xbb]Q\xdeo\x17\x9c\xe0\xb2\xbe@\x8f\x07CR\xbb5\x9est\x04\x04\x9dr\xd8\xd4\x82*\xa8\xbbI\xe2\xba\x04\x9eG\xe6j3\xb6[\xdc'
p4
sS'case_prefix'
p5
S'040e'
p6
sS'sim_cfg'
p7
S'/simulation_data/glooper/cfg/multibatch/new_cfg/wealth/040e_uni_10_200.sim.cfg.py'
p8
sS'fname_stem'
p9
S'uni_10_200'
p10
sS'agt_cfg'
p11
S'/simulation_data/glooper/cfg/multibatch/new_cfg/wealth/040e_uni_10_200.sim.cfg.agent.lua'
p12
sS'bin_cfg'
p13
S'/simulation_data/glooper/cfg/multibatch/new_cfg/wealth/040e_uni_10_200.sim.cfg.bin'
p14
sS'sim_comment'
p15
S'Uniform with 100 NA(Uniform)(1,0) agents; Uniform(10k,200k) wealth'
p16
sS'outpath'
p17
S'/simulation_data/glooper/cfg/multibatch/new_cfg/wealth'
p18
sS'agent_population'
p19
(dp20
S'single'
p21
(dp22
S'type'
p23
S'StandardComplexAgent'
p24
sS'attrs'
p25
(dp26
S'significance_threshold'
p27
(S'1'
p28
I0
tp29
sS'belief'
p30
(S'rng.UniformGenerator()'
p31
I1
tp32
sS'public_weight'
p33
(g28
I0
tp34
sS'mean_reversion'
p35
(S'0'
p36
I0
tp37
sS'max_memory'
p38
(g28
I0
tp39
sS'private_info_generator'
p40
(S'rng.UniformGenerator()'
p41
I0
tp42
sS'private_weight'
p43
(g36
I0
tp44
sS'spread_generator'
p45
(S'rng.UniformGenerator(0.001, 0.01)'
p46
I0
tp47
sS'wealth'
p48
(S'rng.UniformGenerator(10000, 200000)'
p49
I1
tp50
ssS'N'
p51
S'100'
p52
sssS'N_batches'
p53
g28
sS'N_steps'
p54
S'1000'
p55
sS'info_generator'
p56
(dp57
g23
S'SimpleInfoGenerator'
p58
sg25
(dp59
S'value_generator'
p60
S'rng.UniformGenerator()'
p61
sssS'N_runs'
p62
S'100'
p63
sS'N_threads'
p64
S'4'
p65
s.