(dp0
S'sim_hash'
p1
S'Gm\xe0S\xea\x8d\x0f\xdd\xd3\xfdrSx\xb2\x91\xf3\x92\xe2\xc6jpI^3\x0e\xd4y\xaaiq!\x14#\x86|\xc8\xad\xb69\xbffh7\x89\xde\xb26\xcbl)\xa4\x89\xc5\x0b\xcf}/\xae\xec\xd2\x9bJP\x95'
p2
sS'agt_hash'
p3
S'\xa3\x88~\x14\xd6\xec\xaa\xdb\xe0H-\xd0\\\x18G\xb6t\xdb\xca1\xe9\xc7-\x83\x0f#\x8bB\x07\x0feRl7\xf0\x1e\xb9\xd3{5\xea\xf9\xe2\x1c\x01\x12\xa2\x0b\xb2\xf3\xda<x\x8e\xc4\x8b\xf4\xee#S\xba>\x8e\xae'
p4
sS'case_prefix'
p5
S'040f'
p6
sS'sim_cfg'
p7
S'/simulation_data/glooper/cfg/multibatch/new_cfg/wealth/040f_pareto_100k.sim.cfg.py'
p8
sS'fname_stem'
p9
S'pareto_100k'
p10
sS'agt_cfg'
p11
S'/simulation_data/glooper/cfg/multibatch/new_cfg/wealth/040f_pareto_100k.sim.cfg.agent.lua'
p12
sS'bin_cfg'
p13
S'/simulation_data/glooper/cfg/multibatch/new_cfg/wealth/040f_pareto_100k.sim.cfg.bin'
p14
sS'sim_comment'
p15
S'Uniform with 100 NA(Uniform)(1,0) agents; Pareto(1.4,100k) wealth'
p16
sS'outpath'
p17
S'/simulation_data/glooper/cfg/multibatch/new_cfg/wealth'
p18
sS'agent_population'
p19
(dp20
S'single'
p21
(dp22
S'type'
p23
S'StandardComplexAgent'
p24
sS'attrs'
p25
(dp26
S'significance_threshold'
p27
(S'1'
p28
I0
tp29
sS'belief'
p30
(S'rng.UniformGenerator()'
p31
I1
tp32
sS'public_weight'
p33
(g28
I0
tp34
sS'mean_reversion'
p35
(S'0'
p36
I0
tp37
sS'max_memory'
p38
(g28
I0
tp39
sS'private_info_generator'
p40
(S'rng.UniformGenerator()'
p41
I0
tp42
sS'private_weight'
p43
(g36
I0
tp44
sS'spread_generator'
p45
(S'rng.UniformGenerator(0.001, 0.01)'
p46
I0
tp47
sS'wealth'
p48
(S'rng.ParetoGenerator(100000, 1.4)'
p49
I1
tp50
ssS'N'
p51
S'100'
p52
sssS'N_batches'
p53
g28
sS'N_steps'
p54
S'1000'
p55
sS'info_generator'
p56
(dp57
g23
S'SimpleInfoGenerator'
p58
sg25
(dp59
S'value_generator'
p60
S'rng.UniformGenerator()'
p61
sssS'N_runs'
p62
S'100'
p63
sS'N_threads'
p64
S'4'
p65
s.