(dp0
S'sim_hash'
p1
S'u\xb2\x19}[\x9a\xdd\x17N"k\xb4\xa64\xc2Op1\x06\x9823\xbcn\xd9\x98\x01\xc2\x03c\xc3\xf6\xdc\xb9m\xf5"\xa2\xe1\x8d\x01\x8e %0\xeb\xb07a\xbe\x11A\xc0?\xeaZ\xba\xb0\xf0B1\x8b\x08\xf2'
p2
sS'agt_hash'
p3
S"\x9f\xb5M\x13\x9c0p|2U\xb5\xa7\x96\xffW\xc1\x846\xe7wX\xe7\x88\xb6m\x8a\xe1P;\xeb\x98\x1dP\xb4x('\xda\xdb\x90`!\xa7Yez\xfbK\xe2me=\x1a\x96\xb4\xef|]\xaf\xd5\x881\xa8\xd1"
p4
sS'case_prefix'
p5
S'021a'
p6
sS'sim_cfg'
p7
S'/simulation_data/glooper/cfg/multibatch/new_cfg/mr_tf/021a_50_MR.sim.cfg.py'
p8
sS'fname_stem'
p9
S'50_MR'
p10
sS'agt_cfg'
p11
S'/simulation_data/glooper/cfg/multibatch/new_cfg/mr_tf/021a_50_MR.sim.cfg.agent.lua'
p12
sS'bin_cfg'
p13
S'/simulation_data/glooper/cfg/multibatch/new_cfg/mr_tf/021a_50_MR.sim.cfg.bin'
p14
sS'sim_comment'
p15
S'Uniform with 50 MR(Uniform)(1,0) agents '
p16
sS'outpath'
p17
S'/simulation_data/glooper/cfg/multibatch/new_cfg/mr_tf'
p18
sS'agent_population'
p19
(dp20
S'single'
p21
(dp22
S'type'
p23
S'StandardComplexAgent'
p24
sS'attrs'
p25
(dp26
S'significance_threshold'
p27
(S'20'
p28
I0
tp29
sS'belief'
p30
(S'rng.UniformGenerator()'
p31
I1
tp32
sS'public_weight'
p33
(S'1'
p34
I0
tp35
sS'mean_reversion'
p36
(g34
I0
tp37
sS'max_memory'
p38
(S'0'
p39
I0
tp40
sS'private_info_generator'
p41
(S'rng.UniformGenerator()'
p42
I0
tp43
sS'private_weight'
p44
(g39
I0
tp45
sS'spread_generator'
p46
(S'rng.UniformGenerator(0.001, 0.01)'
p47
I0
tp48
sS'wealth'
p49
(S'rng.ParetoGenerator(10000, 1.4)'
p50
I1
tp51
ssS'N'
p52
S'50'
p53
sssS'N_batches'
p54
g34
sS'N_steps'
p55
S'1000'
p56
sS'info_generator'
p57
(dp58
g23
S'SimpleInfoGenerator'
p59
sg25
(dp60
S'value_generator'
p61
S'rng.UniformGenerator()'
p62
sssS'N_runs'
p63
S'100'
p64
sS'N_threads'
p65
S'4'
p66
s.