(dp0
S'sim_hash'
p1
S'\xe4\x182\xc7B\xc5\x9d\xdf*\xb0t\x9a\xe8\xf3\x0c\xb9\x83\xb8p\x92y\xc0\x1fv\x9f\xb7\xc4\x99\xfb<?\xb0\xe1.\xf6\xa9f\xf1\xd9\xe2R~\xdb\xad\xfd&h\x96\xb5\xf3X\x89\xe6@\x0e\xa8`g\xb4D\xa3\x9c\xc3\xea'
p2
sS'agt_hash'
p3
S'\xc1Y\xac+XO\xcd\xc4\xe2\xe0\x02\xce\x97,g\x90\xbc>\x8d\x1f\xdd +\xe5=:a\xb2\xed\t\x9e.\xb1\\_\x89\xb9r\xb5\xc4\xd0\xdb\xcc~\xda0\x18\x14\xde+\xa8\xaa\xe2R\xcd\x91\xbd\x13\xe8\x13\xed%\xb0\xaf'
p4
sS'case_prefix'
p5
S'021b'
p6
sS'sim_cfg'
p7
S'/simulation_data/glooper/cfg/multibatch/new_cfg/mr_tf/021b_100_MR.sim.cfg.py'
p8
sS'fname_stem'
p9
S'100_MR'
p10
sS'agt_cfg'
p11
S'/simulation_data/glooper/cfg/multibatch/new_cfg/mr_tf/021b_100_MR.sim.cfg.agent.lua'
p12
sS'bin_cfg'
p13
S'/simulation_data/glooper/cfg/multibatch/new_cfg/mr_tf/021b_100_MR.sim.cfg.bin'
p14
sS'sim_comment'
p15
S'Uniform with 100 MR(Uniform)(1,0) agents '
p16
sS'outpath'
p17
S'/simulation_data/glooper/cfg/multibatch/new_cfg/mr_tf'
p18
sS'agent_population'
p19
(dp20
S'single'
p21
(dp22
S'type'
p23
S'StandardComplexAgent'
p24
sS'attrs'
p25
(dp26
S'significance_threshold'
p27
(S'20'
p28
I0
tp29
sS'belief'
p30
(S'rng.UniformGenerator()'
p31
I1
tp32
sS'public_weight'
p33
(S'1'
p34
I0
tp35
sS'mean_reversion'
p36
(g34
I0
tp37
sS'max_memory'
p38
(S'0'
p39
I0
tp40
sS'private_info_generator'
p41
(S'rng.UniformGenerator()'
p42
I0
tp43
sS'private_weight'
p44
(g39
I0
tp45
sS'spread_generator'
p46
(S'rng.UniformGenerator(0.001, 0.01)'
p47
I0
tp48
sS'wealth'
p49
(S'rng.ParetoGenerator(10000, 1.4)'
p50
I1
tp51
ssS'N'
p52
S'100'
p53
sssS'N_batches'
p54
g34
sS'N_steps'
p55
S'1000'
p56
sS'info_generator'
p57
(dp58
g23
S'SimpleInfoGenerator'
p59
sg25
(dp60
S'value_generator'
p61
S'rng.UniformGenerator()'
p62
sssS'N_runs'
p63
S'100'
p64
sS'N_threads'
p65
S'4'
p66
s.