(dp0
S'sim_hash'
p1
S'\xfe\xd8\xbc\xf6\xda=\x81ku\xbf\xc0.\xc8\x94hG\xbb\x1e*\xf8\xe9Q\xec\x80\x94C\x95\xc7\xbci\x82#\xb0\x19\x8c\t_\n\xba\x12\xado\\\x06\xfa8\x99\xda\xce^\x17I\xbf\xa3\xf6\xcb\x9f\xb9l\xb7\xfb\x06\x1f['
p2
sS'agt_hash'
p3
S"(\xc1_\xdd\x96\xe2\xcc\x9c=m\xd7\xfeb8\xb9\x0c<\xdd\xc9\xc6\xb2.\xd4c'\xa2g\xaaX/\x01\xc7\xd1\xdbYr|\xf8\xc8\xa3J\x80?\xd5\xfct\x96\xa2YG\x04\xa0=WCB\x0f\x1f\xec\xb3\xf2<1K"
p4
sS'case_prefix'
p5
S'021c'
p6
sS'sim_cfg'
p7
S'/simulation_data/glooper/cfg/multibatch/new_cfg/mr_tf/021c_200_MR.sim.cfg.py'
p8
sS'fname_stem'
p9
S'200_MR'
p10
sS'agt_cfg'
p11
S'/simulation_data/glooper/cfg/multibatch/new_cfg/mr_tf/021c_200_MR.sim.cfg.agent.lua'
p12
sS'bin_cfg'
p13
S'/simulation_data/glooper/cfg/multibatch/new_cfg/mr_tf/021c_200_MR.sim.cfg.bin'
p14
sS'sim_comment'
p15
S'Uniform with 200 MR(Uniform)(1,0) agents '
p16
sS'outpath'
p17
S'/simulation_data/glooper/cfg/multibatch/new_cfg/mr_tf'
p18
sS'agent_population'
p19
(dp20
S'single'
p21
(dp22
S'type'
p23
S'StandardComplexAgent'
p24
sS'attrs'
p25
(dp26
S'significance_threshold'
p27
(S'20'
p28
I0
tp29
sS'belief'
p30
(S'rng.UniformGenerator()'
p31
I1
tp32
sS'public_weight'
p33
(S'1'
p34
I0
tp35
sS'mean_reversion'
p36
(g34
I0
tp37
sS'max_memory'
p38
(S'0'
p39
I0
tp40
sS'private_info_generator'
p41
(S'rng.UniformGenerator()'
p42
I0
tp43
sS'private_weight'
p44
(g39
I0
tp45
sS'spread_generator'
p46
(S'rng.UniformGenerator(0.001, 0.01)'
p47
I0
tp48
sS'wealth'
p49
(S'rng.ParetoGenerator(10000, 1.4)'
p50
I1
tp51
ssS'N'
p52
S'200'
p53
sssS'N_batches'
p54
g34
sS'N_steps'
p55
S'1000'
p56
sS'info_generator'
p57
(dp58
g23
S'SimpleInfoGenerator'
p59
sg25
(dp60
S'value_generator'
p61
S'rng.UniformGenerator()'
p62
sssS'N_runs'
p63
S'100'
p64
sS'N_threads'
p65
S'4'
p66
s.