(dp0
S'sim_hash'
p1
S'\xe0`\x80\x92\x14sI\xa0\x89\x9f\xbf\xce\xe8[\xd9\x81r\x16\x982\x04-\xc4q\xfd=\x880\x8b\x9d?)d0\x03Gx\x9b|b\x9bM\r\x11a0eq\x8c:3"\xcf\\\x8f?\x85-)!+\xda\x8e\xb0'
p2
sS'agt_hash'
p3
S'5=\xcbb\xe5\x8b\xa1\xe4S\x8b\x83a9\xda]\xf2\xbf/\xf1\x88\xd8\xaa\x9d\\.~\xb4\np\xa70\xc8\xb2\xcd\x9b\x96\x9b\xb4\xa3F%\xbd\x1d\xaa\xe2N\xf2\x9ee\x91S\xea\tf\xabj{\x03)\xc0\x88R\xa7B'
p4
sS'case_prefix'
p5
S'021d'
p6
sS'sim_cfg'
p7
S'/simulation_data/glooper/cfg/multibatch/new_cfg/mr_tf/021d_500_MR.sim.cfg.py'
p8
sS'fname_stem'
p9
S'500_MR'
p10
sS'agt_cfg'
p11
S'/simulation_data/glooper/cfg/multibatch/new_cfg/mr_tf/021d_500_MR.sim.cfg.agent.lua'
p12
sS'bin_cfg'
p13
S'/simulation_data/glooper/cfg/multibatch/new_cfg/mr_tf/021d_500_MR.sim.cfg.bin'
p14
sS'sim_comment'
p15
S'Uniform with 500 MR(Uniform)(1,0) agents '
p16
sS'outpath'
p17
S'/simulation_data/glooper/cfg/multibatch/new_cfg/mr_tf'
p18
sS'agent_population'
p19
(dp20
S'single'
p21
(dp22
S'type'
p23
S'StandardComplexAgent'
p24
sS'attrs'
p25
(dp26
S'significance_threshold'
p27
(S'20'
p28
I0
tp29
sS'belief'
p30
(S'rng.UniformGenerator()'
p31
I1
tp32
sS'public_weight'
p33
(S'1'
p34
I0
tp35
sS'mean_reversion'
p36
(g34
I0
tp37
sS'max_memory'
p38
(S'0'
p39
I0
tp40
sS'private_info_generator'
p41
(S'rng.UniformGenerator()'
p42
I0
tp43
sS'private_weight'
p44
(g39
I0
tp45
sS'spread_generator'
p46
(S'rng.UniformGenerator(0.001, 0.01)'
p47
I0
tp48
sS'wealth'
p49
(S'rng.ParetoGenerator(10000, 1.4)'
p50
I1
tp51
ssS'N'
p52
S'500'
p53
sssS'N_batches'
p54
g34
sS'N_steps'
p55
S'1000'
p56
sS'info_generator'
p57
(dp58
g23
S'SimpleInfoGenerator'
p59
sg25
(dp60
S'value_generator'
p61
S'rng.UniformGenerator()'
p62
sssS'N_runs'
p63
S'100'
p64
sS'N_threads'
p65
S'4'
p66
s.