(dp0
S'sim_hash'
p1
S'\xcb\xbe \x7f\xa1\xfal\xdd\x08\xb5l*\x98o\xfc\xcf^Rz\x98\x85I\xac\xbaN\xfbC\x04\x91\xb6 X\xb8\xcbbBf,/i\xfe\x8e\xe0\xc6Y\xe6\xc7\x01\xb1!\xf1\xb0\x80\xe6\xd9\r\xb0\xdb\xe5@]\x1c\xed\x0e'
p2
sS'agt_hash'
p3
S'd\xcb\xaf\xcf\x89P\xf3\xebE}`#\xdd=\xea\x15h\xb1z\x9e\xbae\xb1\x82`\xaa3\x1f"\xcc\xb6*\xb6\xa3}\xa0N\x0f\xdc6J\xbf\xe8\x05\x8f\x8b\x98,YP\x10\x8f\xaa\xc18\xec\xee}}\xe8Is},'
p4
sS'case_prefix'
p5
S'021e'
p6
sS'sim_cfg'
p7
S'/simulation_data/glooper/cfg/multibatch/new_cfg/mr_tf/021e_1000_MR.sim.cfg.py'
p8
sS'fname_stem'
p9
S'1000_MR'
p10
sS'agt_cfg'
p11
S'/simulation_data/glooper/cfg/multibatch/new_cfg/mr_tf/021e_1000_MR.sim.cfg.agent.lua'
p12
sS'bin_cfg'
p13
S'/simulation_data/glooper/cfg/multibatch/new_cfg/mr_tf/021e_1000_MR.sim.cfg.bin'
p14
sS'sim_comment'
p15
S'Uniform with 1000 MR(Uniform)(1,0) agents '
p16
sS'outpath'
p17
S'/simulation_data/glooper/cfg/multibatch/new_cfg/mr_tf'
p18
sS'agent_population'
p19
(dp20
S'single'
p21
(dp22
S'type'
p23
S'StandardComplexAgent'
p24
sS'attrs'
p25
(dp26
S'significance_threshold'
p27
(S'20'
p28
I0
tp29
sS'belief'
p30
(S'rng.UniformGenerator()'
p31
I1
tp32
sS'public_weight'
p33
(S'1'
p34
I0
tp35
sS'mean_reversion'
p36
(g34
I0
tp37
sS'max_memory'
p38
(S'0'
p39
I0
tp40
sS'private_info_generator'
p41
(S'rng.UniformGenerator()'
p42
I0
tp43
sS'private_weight'
p44
(g39
I0
tp45
sS'spread_generator'
p46
(S'rng.UniformGenerator(0.001, 0.01)'
p47
I0
tp48
sS'wealth'
p49
(S'rng.ParetoGenerator(10000, 1.4)'
p50
I1
tp51
ssS'N'
p52
S'1000'
p53
sssS'N_batches'
p54
g34
sS'N_steps'
p55
S'1000'
p56
sS'info_generator'
p57
(dp58
g23
S'SimpleInfoGenerator'
p59
sg25
(dp60
S'value_generator'
p61
S'rng.UniformGenerator()'
p62
sssS'N_runs'
p63
S'100'
p64
sS'N_threads'
p65
S'4'
p66
s.