(dp0
S'sim_hash'
p1
S'\x18\x0c>~\xa1\x88\xfb\x19\x1b0\x13\x0f%\t\xa65\t\xf0\xb5\xc2lk\xdc;\x9d\xd1\x0f!V9\x11\x05P\xa4A\x91B\xc2.\xe4\xb0\x08\xcb\xdb:\x9a5\x8c\x0e\xed\x06e\xc6\x01u\xbb\x82\x05\xcd\xad\xae\xf8\x06\x83'
p2
sS'agt_hash'
p3
S'\xb3\x07U\xf7\xf4\xf2\x1bJD\x10\xdf\xd8\xc7fQ7\x84\x9e\x04Z\x8f\xf3w`\xbc\xba\xde\xa7Y\xadS\x83\xc7\xbd\x850~\x84\x00\x1e\xe8\x1f\xea\\\xd8\xe4\xcf\t\xe6\x04\xc3\x18\x95\xee\xf8i\x1er\x11$0\xb4~D'
p4
sS'case_prefix'
p5
S'022a'
p6
sS'sim_cfg'
p7
S'/simulation_data/glooper/cfg/multibatch/new_cfg/mr_tf/022a_50_TF.sim.cfg.py'
p8
sS'fname_stem'
p9
S'50_TF'
p10
sS'agt_cfg'
p11
S'/simulation_data/glooper/cfg/multibatch/new_cfg/mr_tf/022a_50_TF.sim.cfg.agent.lua'
p12
sS'bin_cfg'
p13
S'/simulation_data/glooper/cfg/multibatch/new_cfg/mr_tf/022a_50_TF.sim.cfg.bin'
p14
sS'sim_comment'
p15
S'Uniform with 50 TF(Uniform)(1,0) agents '
p16
sS'outpath'
p17
S'/simulation_data/glooper/cfg/multibatch/new_cfg/mr_tf'
p18
sS'agent_population'
p19
(dp20
S'single'
p21
(dp22
S'type'
p23
S'StandardComplexAgent'
p24
sS'attrs'
p25
(dp26
S'significance_threshold'
p27
(S'20'
p28
I0
tp29
sS'belief'
p30
(S'rng.UniformGenerator()'
p31
I1
tp32
sS'public_weight'
p33
(S'1'
p34
I0
tp35
sS'mean_reversion'
p36
(S'-1'
p37
I0
tp38
sS'max_memory'
p39
(S'0'
p40
I0
tp41
sS'private_info_generator'
p42
(S'rng.UniformGenerator()'
p43
I0
tp44
sS'private_weight'
p45
(g40
I0
tp46
sS'spread_generator'
p47
(S'rng.UniformGenerator(0.001, 0.01)'
p48
I0
tp49
sS'wealth'
p50
(S'rng.ParetoGenerator(10000, 1.4)'
p51
I1
tp52
ssS'N'
p53
S'50'
p54
sssS'N_batches'
p55
g34
sS'N_steps'
p56
S'1000'
p57
sS'info_generator'
p58
(dp59
g23
S'SimpleInfoGenerator'
p60
sg25
(dp61
S'value_generator'
p62
S'rng.UniformGenerator()'
p63
sssS'N_runs'
p64
S'100'
p65
sS'N_threads'
p66
S'4'
p67
s.