(dp0
S'sim_hash'
p1
S'\xea\xa3\xa0R\xb4\x14\xd5Z\xfb\xd9\x1b\xeeP\xc4\x0b\xde?\xdfAG\xab\xb3\x89\x16A\xd9u2\x96\xa9\xe8~$j\xc6\xbd\xb9\xb5\x0f\xed\xb5\x98!_\xf6\xd6\xcb \x00\xdd\xcf\xe3\x93\xc5\xc8\x85AA\xd2$\xe0\xc0G\xb9'
p2
sS'agt_hash'
p3
S'P#;\xecKz\x19\x9aM\x1f9\xbc\xeb\xf97\xc0\x00\xe4\x17\xee\xb6\x14\xc9\x94r\x15\xda\xe1\xe2\xcdg\x14\x12}i"\x97\xb9\xe1V\x7fl\x84\x7f\xb65V\xb1\xa2\xff\xae7\xda)\x11wi\x94Yd@D\r\xfc'
p4
sS'case_prefix'
p5
S'022b'
p6
sS'sim_cfg'
p7
S'/simulation_data/glooper/cfg/multibatch/new_cfg/mr_tf/022b_100_TF.sim.cfg.py'
p8
sS'fname_stem'
p9
S'100_TF'
p10
sS'agt_cfg'
p11
S'/simulation_data/glooper/cfg/multibatch/new_cfg/mr_tf/022b_100_TF.sim.cfg.agent.lua'
p12
sS'bin_cfg'
p13
S'/simulation_data/glooper/cfg/multibatch/new_cfg/mr_tf/022b_100_TF.sim.cfg.bin'
p14
sS'sim_comment'
p15
S'Uniform with 100 TF(Uniform)(1,0) agents '
p16
sS'outpath'
p17
S'/simulation_data/glooper/cfg/multibatch/new_cfg/mr_tf'
p18
sS'agent_population'
p19
(dp20
S'single'
p21
(dp22
S'type'
p23
S'StandardComplexAgent'
p24
sS'attrs'
p25
(dp26
S'significance_threshold'
p27
(S'20'
p28
I0
tp29
sS'belief'
p30
(S'rng.UniformGenerator()'
p31
I1
tp32
sS'public_weight'
p33
(S'1'
p34
I0
tp35
sS'mean_reversion'
p36
(S'-1'
p37
I0
tp38
sS'max_memory'
p39
(S'0'
p40
I0
tp41
sS'private_info_generator'
p42
(S'rng.UniformGenerator()'
p43
I0
tp44
sS'private_weight'
p45
(g40
I0
tp46
sS'spread_generator'
p47
(S'rng.UniformGenerator(0.001, 0.01)'
p48
I0
tp49
sS'wealth'
p50
(S'rng.ParetoGenerator(10000, 1.4)'
p51
I1
tp52
ssS'N'
p53
S'100'
p54
sssS'N_batches'
p55
g34
sS'N_steps'
p56
S'1000'
p57
sS'info_generator'
p58
(dp59
g23
S'SimpleInfoGenerator'
p60
sg25
(dp61
S'value_generator'
p62
S'rng.UniformGenerator()'
p63
sssS'N_runs'
p64
S'100'
p65
sS'N_threads'
p66
S'4'
p67
s.