(dp0
S'sim_hash'
p1
S"\xc8\xe1@\xde\x9e\xbb\x9a\xfc\xe8\xfb\xce\xa9 \xad\xf4 \x10L\xa2Op\x87\t\xed{\x14\x7f$\x97\xf3\x94\x13'\n\xc3\x93\xd19R\x97C\xc8\x9f0\xf0\xb5De\x8aJH\xbc\xc8\x1c\x85\xd1C\xc8\xa57\xd0\xa53\xe7"
p2
sS'agt_hash'
p3
S'Wd\xc90\xe7\xcd 6\xe4\xf1\x91\xd6\x8d1\x06\xa8\xcc\x07\x83t]\x8b\xd6\xeb\x0b|M\xdd7\x88\x84\x83\xe2\x03 \x0c\xd8\x9e\xeew-\xe1\xe1\xeci\x0f\xb0#h\xcc\xafk\xd1i`\x0e\xc9.\x07T\xfb\x86\xcd\xd7'
p4
sS'case_prefix'
p5
S'022c'
p6
sS'sim_cfg'
p7
S'/simulation_data/glooper/cfg/multibatch/new_cfg/mr_tf/022c_200_TF.sim.cfg.py'
p8
sS'fname_stem'
p9
S'200_TF'
p10
sS'agt_cfg'
p11
S'/simulation_data/glooper/cfg/multibatch/new_cfg/mr_tf/022c_200_TF.sim.cfg.agent.lua'
p12
sS'bin_cfg'
p13
S'/simulation_data/glooper/cfg/multibatch/new_cfg/mr_tf/022c_200_TF.sim.cfg.bin'
p14
sS'sim_comment'
p15
S'Uniform with 200 TF(Uniform)(1,0) agents '
p16
sS'outpath'
p17
S'/simulation_data/glooper/cfg/multibatch/new_cfg/mr_tf'
p18
sS'agent_population'
p19
(dp20
S'single'
p21
(dp22
S'type'
p23
S'StandardComplexAgent'
p24
sS'attrs'
p25
(dp26
S'significance_threshold'
p27
(S'20'
p28
I0
tp29
sS'belief'
p30
(S'rng.UniformGenerator()'
p31
I1
tp32
sS'public_weight'
p33
(S'1'
p34
I0
tp35
sS'mean_reversion'
p36
(S'-1'
p37
I0
tp38
sS'max_memory'
p39
(S'0'
p40
I0
tp41
sS'private_info_generator'
p42
(S'rng.UniformGenerator()'
p43
I0
tp44
sS'private_weight'
p45
(g40
I0
tp46
sS'spread_generator'
p47
(S'rng.UniformGenerator(0.001, 0.01)'
p48
I0
tp49
sS'wealth'
p50
(S'rng.ParetoGenerator(10000, 1.4)'
p51
I1
tp52
ssS'N'
p53
S'200'
p54
sssS'N_batches'
p55
g34
sS'N_steps'
p56
S'1000'
p57
sS'info_generator'
p58
(dp59
g23
S'SimpleInfoGenerator'
p60
sg25
(dp61
S'value_generator'
p62
S'rng.UniformGenerator()'
p63
sssS'N_runs'
p64
S'100'
p65
sS'N_threads'
p66
S'4'
p67
s.