(dp0
S'sim_hash'
p1
S'<\xc9\xa6^\xf2j\xbe\xa5\xb7p\x97\xa8\xe0\x9a\xf9\xe6\xe3\xbc\x99r\xea\x16\x1c\xcc\xa5\x00\x1e+Zv#\x90*\x98\x8d.\xa3\xd5M\x00\x97A\x81G4)\xe6w\xa3\xac\x9dP\xdf\xe7*O\x14pZ\xc1\xa2\xb2R\x8f'
p2
sS'agt_hash'
p3
S'{\xc8\x91\xbc\xa2\xaf\x19\xc8\xb6\x93@\x02\x12R\xd6\\\x05X\x8e\xa5KH\xaf\xe2\x0eQ\xf7\xd8\xc2\xa9-\x8dI\r\x10i\xc6\xd2e@\xe7\xaad\xa4\xbc`\xa3\x12\x84\xf9q\x16\xb6x\xe1\xe7}\xbf\xece\xda\xf0&)'
p4
sS'case_prefix'
p5
S'022d'
p6
sS'sim_cfg'
p7
S'/simulation_data/glooper/cfg/multibatch/new_cfg/mr_tf/022d_500_TF.sim.cfg.py'
p8
sS'fname_stem'
p9
S'500_TF'
p10
sS'agt_cfg'
p11
S'/simulation_data/glooper/cfg/multibatch/new_cfg/mr_tf/022d_500_TF.sim.cfg.agent.lua'
p12
sS'bin_cfg'
p13
S'/simulation_data/glooper/cfg/multibatch/new_cfg/mr_tf/022d_500_TF.sim.cfg.bin'
p14
sS'sim_comment'
p15
S'Uniform with 500 TF(Uniform)(1,0) agents '
p16
sS'outpath'
p17
S'/simulation_data/glooper/cfg/multibatch/new_cfg/mr_tf'
p18
sS'agent_population'
p19
(dp20
S'single'
p21
(dp22
S'type'
p23
S'StandardComplexAgent'
p24
sS'attrs'
p25
(dp26
S'significance_threshold'
p27
(S'20'
p28
I0
tp29
sS'belief'
p30
(S'rng.UniformGenerator()'
p31
I1
tp32
sS'public_weight'
p33
(S'1'
p34
I0
tp35
sS'mean_reversion'
p36
(S'-1'
p37
I0
tp38
sS'max_memory'
p39
(S'0'
p40
I0
tp41
sS'private_info_generator'
p42
(S'rng.UniformGenerator()'
p43
I0
tp44
sS'private_weight'
p45
(g40
I0
tp46
sS'spread_generator'
p47
(S'rng.UniformGenerator(0.001, 0.01)'
p48
I0
tp49
sS'wealth'
p50
(S'rng.ParetoGenerator(10000, 1.4)'
p51
I1
tp52
ssS'N'
p53
S'500'
p54
sssS'N_batches'
p55
g34
sS'N_steps'
p56
S'1000'
p57
sS'info_generator'
p58
(dp59
g23
S'SimpleInfoGenerator'
p60
sg25
(dp61
S'value_generator'
p62
S'rng.UniformGenerator()'
p63
sssS'N_runs'
p64
S'100'
p65
sS'N_threads'
p66
S'4'
p67
s.