(dp0
S'sim_hash'
p1
S"Z!@\xb0\xac?\x86\xfc\r\xf08\x89\xeb\xc3\xdb\xbf<*\xbe\x98\xe9k\xc4R''\x95\xd7\xe4\x7fm\xd7\xac\xa4\xaf\x03\xf0\xaab}\x1e\x9e\x0f\x0co\x0f\x88+]\x07\xe5\xc5\x8f,\xd5\xce\\\xd41\xbd\xa7fl|"
p2
sS'agt_hash'
p3
S'\x8c\x985\x9c\x94h\x1a\xaf\xbcr\xea{\x13\x8a\xbe4\xc9\xfa\xb7\x176\xe0o\x8b@\x9eG\xe3\x16%@%\xc7\xee`\x1b\x17f\xb2D\xd0\x01\xe8\xcb\x85\xbb\xf9\xdf\xafC\x00T=\x8b|\xd9C\x9c_\x98\x02\x8b\x99['
p4
sS'case_prefix'
p5
S'022e'
p6
sS'sim_cfg'
p7
S'/simulation_data/glooper/cfg/multibatch/new_cfg/mr_tf/022e_1000_TF.sim.cfg.py'
p8
sS'fname_stem'
p9
S'1000_TF'
p10
sS'agt_cfg'
p11
S'/simulation_data/glooper/cfg/multibatch/new_cfg/mr_tf/022e_1000_TF.sim.cfg.agent.lua'
p12
sS'bin_cfg'
p13
S'/simulation_data/glooper/cfg/multibatch/new_cfg/mr_tf/022e_1000_TF.sim.cfg.bin'
p14
sS'sim_comment'
p15
S'Uniform with 1000 TF(Uniform)(1,0) agents '
p16
sS'outpath'
p17
S'/simulation_data/glooper/cfg/multibatch/new_cfg/mr_tf'
p18
sS'agent_population'
p19
(dp20
S'single'
p21
(dp22
S'type'
p23
S'StandardComplexAgent'
p24
sS'attrs'
p25
(dp26
S'significance_threshold'
p27
(S'20'
p28
I0
tp29
sS'belief'
p30
(S'rng.UniformGenerator()'
p31
I1
tp32
sS'public_weight'
p33
(S'1'
p34
I0
tp35
sS'mean_reversion'
p36
(S'-1'
p37
I0
tp38
sS'max_memory'
p39
(S'0'
p40
I0
tp41
sS'private_info_generator'
p42
(S'rng.UniformGenerator()'
p43
I0
tp44
sS'private_weight'
p45
(g40
I0
tp46
sS'spread_generator'
p47
(S'rng.UniformGenerator(0.001, 0.01)'
p48
I0
tp49
sS'wealth'
p50
(S'rng.ParetoGenerator(10000, 1.4)'
p51
I1
tp52
ssS'N'
p53
S'1000'
p54
sssS'N_batches'
p55
g34
sS'N_steps'
p56
S'1000'
p57
sS'info_generator'
p58
(dp59
g23
S'SimpleInfoGenerator'
p60
sg25
(dp61
S'value_generator'
p62
S'rng.UniformGenerator()'
p63
sssS'N_runs'
p64
S'100'
p65
sS'N_threads'
p66
S'4'
p67
s.